target datalayout = "e-m:e-p270:32:32-p271:32:32-p272:64:64-i64:64-i128:128-f80:128-n8:16:32:64-S128"
target triple = "x86_64-pc-linux-gnu"

@allow_customize = internal global i32 1, align 4
@malloc_impl = internal global ptr @CRYPTO_malloc, align 8
@free_impl = internal global ptr @CRYPTO_free, align 8

; Function Attrs: nounwind uwtable
define void @CRYPTO_free(ptr noundef %0, ptr noundef %1, i32 noundef %2) #0 {
  %4 = alloca ptr, align 8
  %5 = alloca ptr, align 8
  %6 = alloca i32, align 4
  store ptr %0, ptr %4, align 8, !tbaa !3
  store ptr %1, ptr %5, align 8, !tbaa !11
  store i32 %2, ptr %6, align 4, !tbaa !7
  %7 = load ptr, ptr @free_impl, align 8, !tbaa !3
  %8 = icmp ne ptr %7, @CRYPTO_free
  br i1 %8, label %9, label %14

9:                                                ; preds = %3
  %10 = load ptr, ptr @free_impl, align 8, !tbaa !3
  %11 = load ptr, ptr %4, align 8, !tbaa !3
  %12 = load ptr, ptr %5, align 8, !tbaa !11
  %13 = load i32, ptr %6, align 4, !tbaa !7
  call void %10(ptr noundef %11, ptr noundef %12, i32 noundef %13)
  br label %16

14:                                               ; preds = %3
  %15 = load ptr, ptr %4, align 8, !tbaa !3
  call void @free(ptr noundef %15) #8
  br label %16

16:                                               ; preds = %14, %9
  ret void
}

; Function Attrs: nounwind uwtable
define void @CRYPTO_clear_free(ptr noundef %0, i64 noundef %1, ptr noundef %2, i32 noundef %3) #0 {
  %5 = alloca ptr, align 8
  %6 = alloca i64, align 8
  %7 = alloca ptr, align 8
  %8 = alloca i32, align 4
  store ptr %0, ptr %5, align 8, !tbaa !3
  store i64 %1, ptr %6, align 8, !tbaa !9
  store ptr %2, ptr %7, align 8, !tbaa !11
  store i32 %3, ptr %8, align 4, !tbaa !7
  %9 = load ptr, ptr %5, align 8, !tbaa !3
  %10 = icmp eq ptr %9, null
  br i1 %10, label %11, label %12

11:                                               ; preds = %4
  br label %22

12:                                               ; preds = %4
  %13 = load i64, ptr %6, align 8, !tbaa !9
  %14 = icmp ne i64 %13, 0
  br i1 %14, label %15, label %18

15:                                               ; preds = %12
  %16 = load ptr, ptr %5, align 8, !tbaa !3
  %17 = load i64, ptr %6, align 8, !tbaa !9
  call void @OPENSSL_cleanse(ptr noundef %16, i64 noundef %17)
  br label %18

18:                                               ; preds = %15, %12
  %19 = load ptr, ptr %5, align 8, !tbaa !3
  %20 = load ptr, ptr %7, align 8, !tbaa !11
  %21 = load i32, ptr %8, align 4, !tbaa !7
  call void @CRYPTO_free(ptr noundef %19, ptr noundef %20, i32 noundef %21)
  br label %22

22:                                               ; preds = %18, %11
  ret void
}

; Function Attrs: nounwind uwtable
define noalias ptr @CRYPTO_malloc(i64 noundef %0, ptr noundef %1, i32 noundef %2) #0 {
  %4 = alloca ptr, align 8
  %5 = alloca i64, align 8
  %6 = alloca ptr, align 8
  %7 = alloca i32, align 4
  %8 = alloca ptr, align 8
  %9 = alloca i32, align 4
  store i64 %0, ptr %5, align 8, !tbaa !9
  store ptr %1, ptr %6, align 8, !tbaa !11
  store i32 %2, ptr %7, align 4, !tbaa !7
  call void @llvm.lifetime.start.p0(i64 8, ptr %8) #8
  %10 = load ptr, ptr @malloc_impl, align 8, !tbaa !3
  %11 = icmp ne ptr %10, @CRYPTO_malloc
  br i1 %11, label %12, label %26

12:                                               ; preds = %3
  %13 = load ptr, ptr @malloc_impl, align 8, !tbaa !3
  %14 = load i64, ptr %5, align 8, !tbaa !9
  %15 = load ptr, ptr %6, align 8, !tbaa !11
  %16 = load i32, ptr %7, align 4, !tbaa !7
  %17 = call ptr %13(i64 noundef %14, ptr noundef %15, i32 noundef %16)
  store ptr %17, ptr %8, align 8, !tbaa !3
  %18 = load ptr, ptr %8, align 8, !tbaa !3
  %19 = icmp ne ptr %18, null
  br i1 %19, label %23, label %20

20:                                               ; preds = %12
  %21 = load i64, ptr %5, align 8, !tbaa !9
  %22 = icmp eq i64 %21, 0
  br i1 %22, label %23, label %25

23:                                               ; preds = %20, %12
  %24 = load ptr, ptr %8, align 8, !tbaa !3
  store ptr %24, ptr %4, align 8
  store i32 1, ptr %9, align 4
  br label %52

25:                                               ; preds = %20
  br label %42

26:                                               ; preds = %3
  %27 = load i64, ptr %5, align 8, !tbaa !9
  %28 = icmp eq i64 %27, 0
  br i1 %28, label %29, label %30

29:                                               ; preds = %26
  store ptr null, ptr %4, align 8
  store i32 1, ptr %9, align 4
  br label %52

30:                                               ; preds = %26
  %31 = load i32, ptr @allow_customize, align 4, !tbaa !7
  %32 = icmp ne i32 %31, 0
  br i1 %32, label %33, label %34

33:                                               ; preds = %30
  store i32 0, ptr @allow_customize, align 4, !tbaa !7
  br label %34

34:                                               ; preds = %33, %30
  %35 = load i64, ptr %5, align 8, !tbaa !9
  %36 = call noalias ptr @malloc(i64 noundef %35) #9
  store ptr %36, ptr %8, align 8, !tbaa !3
  %37 = load ptr, ptr %8, align 8, !tbaa !3
  %38 = icmp ne ptr %37, null
  br i1 %38, label %39, label %41

39:                                               ; preds = %34
  %40 = load ptr, ptr %8, align 8, !tbaa !3
  store ptr %40, ptr %4, align 8
  store i32 1, ptr %9, align 4
  br label %52

41:                                               ; preds = %34
  br label %42

42:                                               ; preds = %41, %25
  %43 = load ptr, ptr %6, align 8, !tbaa !11
  %44 = icmp ne ptr %43, null
  br i1 %44, label %48, label %45

45:                                               ; preds = %42
  %46 = load i32, ptr %7, align 4, !tbaa !7
  %47 = icmp ne i32 %46, 0
  br i1 %47, label %48, label %51

48:                                               ; preds = %45, %42
  call void @ERR_new()
  %49 = load ptr, ptr %6, align 8, !tbaa !11
  %50 = load i32, ptr %7, align 4, !tbaa !7
  call void @ERR_set_debug(ptr noundef %49, i32 noundef %50, ptr noundef null)
  call void (i32, i32, ptr, ...) @ERR_set_error(i32 noundef 15, i32 noundef 786688, ptr noundef null)
  br label %51

51:                                               ; preds = %48, %45
  store ptr null, ptr %4, align 8
  store i32 1, ptr %9, align 4
  br label %52

52:                                               ; preds = %51, %39, %29, %23
  call void @llvm.lifetime.end.p0(i64 8, ptr %8) #8
  %53 = load ptr, ptr %4, align 8
  ret ptr %53
}

; Function Attrs: nounwind uwtable
define ptr @CRYPTO_clear_realloc(ptr noundef %0, i64 noundef %1, i64 noundef %2, ptr noundef %3, i32 noundef %4) #0 {
  %6 = alloca ptr, align 8
  %7 = alloca ptr, align 8
  %8 = alloca i64, align 8
  %9 = alloca i64, align 8
  %10 = alloca ptr, align 8
  %11 = alloca i32, align 4
  %12 = alloca ptr, align 8
  %13 = alloca i32, align 4
  store ptr %0, ptr %7, align 8, !tbaa !3
  store i64 %1, ptr %8, align 8, !tbaa !9
  store i64 %2, ptr %9, align 8, !tbaa !9
  store ptr %3, ptr %10, align 8, !tbaa !11
  store i32 %4, ptr %11, align 4, !tbaa !7
  call void @llvm.lifetime.start.p0(i64 8, ptr %12) #8
  store ptr null, ptr %12, align 8, !tbaa !3
  %14 = load ptr, ptr %7, align 8, !tbaa !3
  %15 = icmp eq ptr %14, null
  br i1 %15, label %16, label %21

16:                                               ; preds = %5
  %17 = load i64, ptr %9, align 8, !tbaa !9
  %18 = load ptr, ptr %10, align 8, !tbaa !11
  %19 = load i32, ptr %11, align 4, !tbaa !7
  %20 = call noalias ptr @CRYPTO_malloc(i64 noundef %17, ptr noundef %18, i32 noundef %19)
  store ptr %20, ptr %6, align 8
  store i32 1, ptr %13, align 4
  br label %58

21:                                               ; preds = %5
  %22 = load i64, ptr %9, align 8, !tbaa !9
  %23 = icmp eq i64 %22, 0
  br i1 %23, label %24, label %29

24:                                               ; preds = %21
  %25 = load ptr, ptr %7, align 8, !tbaa !3
  %26 = load i64, ptr %8, align 8, !tbaa !9
  %27 = load ptr, ptr %10, align 8, !tbaa !11
  %28 = load i32, ptr %11, align 4, !tbaa !7
  call void @CRYPTO_clear_free(ptr noundef %25, i64 noundef %26, ptr noundef %27, i32 noundef %28)
  store ptr null, ptr %6, align 8
  store i32 1, ptr %13, align 4
  br label %58

29:                                               ; preds = %21
  %30 = load i64, ptr %9, align 8, !tbaa !9
  %31 = load i64, ptr %8, align 8, !tbaa !9
  %32 = icmp ult i64 %30, %31
  br i1 %32, label %33, label %41

33:                                               ; preds = %29
  %34 = load ptr, ptr %7, align 8, !tbaa !3
  %35 = load i64, ptr %9, align 8, !tbaa !9
  %36 = getelementptr inbounds nuw i8, ptr %34, i64 %35
  %37 = load i64, ptr %8, align 8, !tbaa !9
  %38 = load i64, ptr %9, align 8, !tbaa !9
  %39 = sub i64 %37, %38
  call void @OPENSSL_cleanse(ptr noundef %36, i64 noundef %39)
  %40 = load ptr, ptr %7, align 8, !tbaa !3
  store ptr %40, ptr %6, align 8
  store i32 1, ptr %13, align 4
  br label %58

41:                                               ; preds = %29
  %42 = load i64, ptr %9, align 8, !tbaa !9
  %43 = load ptr, ptr %10, align 8, !tbaa !11
  %44 = load i32, ptr %11, align 4, !tbaa !7
  %45 = call noalias ptr @CRYPTO_malloc(i64 noundef %42, ptr noundef %43, i32 noundef %44)
  store ptr %45, ptr %12, align 8, !tbaa !3
  %46 = load ptr, ptr %12, align 8, !tbaa !3
  %47 = icmp ne ptr %46, null
  br i1 %47, label %48, label %56

48:                                               ; preds = %41
  %49 = load ptr, ptr %12, align 8, !tbaa !3
  %50 = load ptr, ptr %7, align 8, !tbaa !3
  %51 = load i64, ptr %8, align 8, !tbaa !9
  call void @llvm.memcpy.p0.p0.i64(ptr align 1 %49, ptr align 1 %50, i64 %51, i1 false)
  %52 = load ptr, ptr %7, align 8, !tbaa !3
  %53 = load i64, ptr %8, align 8, !tbaa !9
  %54 = load ptr, ptr %10, align 8, !tbaa !11
  %55 = load i32, ptr %11, align 4, !tbaa !7
  call void @CRYPTO_clear_free(ptr noundef %52, i64 noundef %53, ptr noundef %54, i32 noundef %55)
  br label %56

56:                                               ; preds = %48, %41
  %57 = load ptr, ptr %12, align 8, !tbaa !3
  store ptr %57, ptr %6, align 8
  store i32 1, ptr %13, align 4
  br label %58

58:                                               ; preds = %56, %33, %24, %16
  call void @llvm.lifetime.end.p0(i64 8, ptr %12) #8
  %59 = load ptr, ptr %6, align 8
  ret ptr %59
}