; Function Attrs: nounwind uwtable
define ptr @CRYPTO_clear_realloc(ptr noundef %0, i64 noundef %1, i64 noundef %2, ptr noundef %3, i32 noundef %4) local_unnamed_addr #2 {
  %6 = icmp eq ptr %0, null
  br i1 %6, label %7, label %23

7:                                                ; preds = %5
  %8 = load ptr, ptr @malloc_impl, align 8, !tbaa !3
  %.not.i = icmp eq ptr %8, @CRYPTO_malloc
  br i1 %.not.i, label %13, label %9

9:                                                ; preds = %7
  %10 = tail call ptr %8(i64 noundef %2, ptr noundef %3, i32 noundef %4) #11
  %11 = icmp ne ptr %10, null
  %12 = icmp eq i64 %2, 0
  %or.cond.i = or i1 %12, %11
  br i1 %or.cond.i, label %CRYPTO_malloc.exit, label %19

13:                                               ; preds = %7
  %14 = icmp eq i64 %2, 0
  br i1 %14, label %CRYPTO_malloc.exit, label %15

15:                                               ; preds = %13
  %.b.i = load i1, ptr @allow_customize, align 4
  br i1 %.b.i, label %17, label %16

16:                                               ; preds = %15
  store i1 true, ptr @allow_customize, align 4
  br label %17

17:                                               ; preds = %16, %15
  %18 = tail call noalias ptr @malloc(i64 noundef %2) #12
  %.not20.i = icmp eq ptr %18, null
  br i1 %.not20.i, label %19, label %CRYPTO_malloc.exit

19:                                               ; preds = %17, %9
  %20 = icmp ne ptr %3, null
  %21 = icmp ne i32 %4, 0
  %or.cond3.i = or i1 %20, %21
  br i1 %or.cond3.i, label %22, label %CRYPTO_malloc.exit

22:                                               ; preds = %19
  tail call void @ERR_new() #11
  tail call void @ERR_set_debug(ptr noundef %3, i32 noundef %4, ptr noundef null) #11
  tail call void (i32, i32, ptr, ...) @ERR_set_error(i32 noundef 15, i32 noundef 786688, ptr noundef null) #11
  br label %CRYPTO_malloc.exit

23:                                               ; preds = %5
  %24 = icmp eq i64 %2, 0
  br i1 %24, label %25, label %31

25:                                               ; preds = %23
  %.not.i32 = icmp eq i64 %1, 0
  br i1 %.not.i32, label %27, label %26

26:                                               ; preds = %25
  tail call void @OPENSSL_cleanse(ptr noundef nonnull %0, i64 noundef %1) #11
  br label %27

27:                                               ; preds = %26, %25
  %28 = load ptr, ptr @free_impl, align 8, !tbaa !3
  %.not.i.i = icmp eq ptr %28, @CRYPTO_free
  br i1 %.not.i.i, label %30, label %29

29:                                               ; preds = %27
  tail call void %28(ptr noundef nonnull %0, ptr noundef %3, i32 noundef %4) #11
  br label %CRYPTO_malloc.exit

30:                                               ; preds = %27
  tail call void @free(ptr noundef nonnull %0) #11
  br label %CRYPTO_malloc.exit

31:                                               ; preds = %23
  %32 = icmp ult i64 %2, %1
  br i1 %32, label %33, label %36

33:                                               ; preds = %31
  %34 = getelementptr inbounds nuw i8, ptr %0, i64 %2
  %35 = sub nuw i64 %1, %2
  tail call void @OPENSSL_cleanse(ptr noundef nonnull %34, i64 noundef %35) #11
  br label %CRYPTO_malloc.exit

36:                                               ; preds = %31
  %37 = load ptr, ptr @malloc_impl, align 8, !tbaa !3
  %.not.i33 = icmp eq ptr %37, @CRYPTO_malloc
  br i1 %.not.i33, label %40, label %38

38:                                               ; preds = %36
  %39 = tail call ptr %37(i64 noundef %2, ptr noundef %3, i32 noundef %4) #11
  %.not = icmp eq ptr %39, null
  br i1 %.not, label %44, label %48

40:                                               ; preds = %36
  %.b.i37 = load i1, ptr @allow_customize, align 4
  br i1 %.b.i37, label %42, label %41

41:                                               ; preds = %40
  store i1 true, ptr @allow_customize, align 4
  br label %42

42:                                               ; preds = %41, %40
  %43 = tail call noalias ptr @malloc(i64 noundef %2) #12
  %.not20.i38 = icmp eq ptr %43, null
  br i1 %.not20.i38, label %44, label %48

44:                                               ; preds = %42, %38
  %45 = icmp ne ptr %3, null
  %46 = icmp ne i32 %4, 0
  %or.cond3.i35 = or i1 %45, %46
  br i1 %or.cond3.i35, label %47, label %CRYPTO_malloc.exit

47:                                               ; preds = %44
  tail call void @ERR_new() #11
  tail call void @ERR_set_debug(ptr noundef %3, i32 noundef %4, ptr noundef null) #11
  tail call void (i32, i32, ptr, ...) @ERR_set_error(i32 noundef 15, i32 noundef 786688, ptr noundef null) #11
  br label %CRYPTO_malloc.exit

48:                                               ; preds = %38, %42
  %.0.i36 = phi ptr [ %39, %38 ], [ %43, %42 ]
  tail call void @llvm.memcpy.p0.p0.i64(ptr nonnull align 1 %.0.i36, ptr nonnull align 1 %0, i64 %1, i1 false)
  %.not.i40 = icmp eq i64 %1, 0
  br i1 %.not.i40, label %50, label %49

49:                                               ; preds = %48
  tail call void @OPENSSL_cleanse(ptr noundef nonnull %0, i64 noundef %1) #11
  br label %50

50:                                               ; preds = %49, %48
  %51 = load ptr, ptr @free_impl, align 8, !tbaa !3
  %.not.i.i41 = icmp eq ptr %51, @CRYPTO_free
  br i1 %.not.i.i41, label %53, label %52

52:                                               ; preds = %50
  tail call void %51(ptr noundef nonnull %0, ptr noundef %3, i32 noundef %4) #11
  br label %CRYPTO_malloc.exit

53:                                               ; preds = %50
  tail call void @free(ptr noundef nonnull %0) #11
  br label %CRYPTO_malloc.exit

CRYPTO_malloc.exit:                               ; preds = %47, %44, %53, %52, %30, %29, %22, %19, %17, %13, %9, %33
  %.0 = phi ptr [ %0, %33 ], [ %10, %9 ], [ null, %13 ], [ %18, %17 ], [ null, %19 ], [ null, %22 ], [ null, %29 ], [ null, %30 ], [ %.0.i36, %52 ], [ %.0.i36, %53 ], [ null, %44 ], [ null, %47 ]
  ret ptr %.0
}